target datalayout = "e-m:e-p270:32:32-p271:32:32-p272:64:64-i64:64-i128:128-f80:128-n8:16:32:64-S128"
target triple = "x86_64-pc-linux-gnu"

%struct.pmix_value = type { i16, %union.anon }
%union.anon = type { %struct.pmix_envar_t }
%struct.pmix_envar_t = type { ptr, ptr, i8 }
%struct.pmix_info = type { [512 x i8], i32, %struct.pmix_value }

@.str = private unnamed_addr constant [7 x i8] c"oshmem\00", align 1
@.str.9 = private unnamed_addr constant [15 x i8] c"pmix.pgm.model\00", align 1
@.str.10 = private unnamed_addr constant [10 x i8] c"pmix.pers\00", align 1

; Function Attrs: nounwind uwtable
define internal zeroext i1 @checkus(ptr noundef %0, i64 noundef %1) #0 {
  %3 = alloca i1, align 1
  %4 = alloca ptr, align 8
  %5 = alloca i64, align 8
  %6 = alloca i8, align 1
  %7 = alloca ptr, align 8
  %8 = alloca i64, align 8
  %9 = alloca i64, align 8
  %10 = alloca i32, align 4
  store ptr %0, ptr %4, align 8, !tbaa !33
  store i64 %1, ptr %5, align 8, !tbaa !35
  call void @llvm.lifetime.start.p0(i64 1, ptr %6) #11
  store i8 0, ptr %6, align 1, !tbaa !62
  call void @llvm.lifetime.start.p0(i64 8, ptr %7) #11
  call void @llvm.lifetime.start.p0(i64 8, ptr %8) #11
  call void @llvm.lifetime.start.p0(i64 8, ptr %9) #11
  %11 = load ptr, ptr %4, align 8, !tbaa !33
  %12 = icmp eq ptr null, %11
  br i1 %12, label %13, label %14

13:                                               ; preds = %2
  store i1 false, ptr %3, align 1
  store i32 1, ptr %10, align 4
  br label %74

14:                                               ; preds = %2
  store i64 0, ptr %8, align 8, !tbaa !35
  br label %15

15:                                               ; preds = %68, %14
  %16 = load i64, ptr %8, align 8, !tbaa !35
  %17 = load i64, ptr %5, align 8, !tbaa !35
  %18 = icmp ult i64 %16, %17
  br i1 %18, label %19, label %23

19:                                               ; preds = %15
  %20 = load i8, ptr %6, align 1, !tbaa !62, !range !68, !noundef !69
  %21 = trunc i8 %20 to i1
  %22 = xor i1 %21, true
  br label %23

23:                                               ; preds = %19, %15
  %24 = phi i1 [ false, %15 ], [ %22, %19 ]
  br i1 %24, label %25, label %71

25:                                               ; preds = %23
  %26 = load ptr, ptr %4, align 8, !tbaa !33
  %27 = load i64, ptr %8, align 8, !tbaa !35
  %28 = getelementptr inbounds nuw %struct.pmix_info, ptr %26, i64 %27
  %29 = getelementptr inbounds nuw %struct.pmix_info, ptr %28, i32 0, i32 0
  %30 = getelementptr inbounds [512 x i8], ptr %29, i64 0, i64 0
  %31 = call zeroext i1 @PMIx_Check_key(ptr noundef %30, ptr noundef @.str.9)
  br i1 %31, label %39, label %32

32:                                               ; preds = %25
  %33 = load ptr, ptr %4, align 8, !tbaa !33
  %34 = load i64, ptr %8, align 8, !tbaa !35
  %35 = getelementptr inbounds nuw %struct.pmix_info, ptr %33, i64 %34
  %36 = getelementptr inbounds nuw %struct.pmix_info, ptr %35, i32 0, i32 0
  %37 = getelementptr inbounds [512 x i8], ptr %36, i64 0, i64 0
  %38 = call zeroext i1 @PMIx_Check_key(ptr noundef %37, ptr noundef @.str.10)
  br i1 %38, label %39, label %67

39:                                               ; preds = %32, %25
  %40 = load ptr, ptr %4, align 8, !tbaa !33
  %41 = load i64, ptr %8, align 8, !tbaa !35
  %42 = getelementptr inbounds nuw %struct.pmix_info, ptr %40, i64 %41
  %43 = getelementptr inbounds nuw %struct.pmix_info, ptr %42, i32 0, i32 2
  %44 = getelementptr inbounds nuw %struct.pmix_value, ptr %43, i32 0, i32 1
  %45 = load ptr, ptr %44, align 8, !tbaa !60
  %46 = call ptr @PMIx_Argv_split(ptr noundef %45, i32 noundef 44)
  store ptr %46, ptr %7, align 8, !tbaa !40
  store i64 0, ptr %9, align 8, !tbaa !35
  br label %47

47:                                               ; preds = %62, %39
  %48 = load ptr, ptr %7, align 8, !tbaa !40
  %49 = load i64, ptr %9, align 8, !tbaa !35
  %50 = getelementptr inbounds nuw ptr, ptr %48, i64 %49
  %51 = load ptr, ptr %50, align 8, !tbaa !42
  %52 = icmp ne ptr null, %51
  br i1 %52, label %53, label %65

53:                                               ; preds = %47
  %54 = load ptr, ptr %7, align 8, !tbaa !40
  %55 = load i64, ptr %9, align 8, !tbaa !35
  %56 = getelementptr inbounds nuw ptr, ptr %54, i64 %55
  %57 = load ptr, ptr %56, align 8, !tbaa !42
  %58 = call i32 @strcmp(ptr noundef %57, ptr noundef @.str) #12
  %59 = icmp eq i32 0, %58
  br i1 %59, label %60, label %61

60:                                               ; preds = %53
  store i8 1, ptr %6, align 1, !tbaa !62
  br label %65

61:                                               ; preds = %53
  br label %62

62:                                               ; preds = %61
  %63 = load i64, ptr %9, align 8, !tbaa !35
  %64 = add i64 %63, 1
  store i64 %64, ptr %9, align 8, !tbaa !35
  br label %47, !llvm.loop !139

65:                                               ; preds = %60, %47
  %66 = load ptr, ptr %7, align 8, !tbaa !40
  call void @PMIx_Argv_free(ptr noundef %66)
  br label %67

67:                                               ; preds = %65, %32
  br label %68

68:                                               ; preds = %67
  %69 = load i64, ptr %8, align 8, !tbaa !35
  %70 = add i64 %69, 1
  store i64 %70, ptr %8, align 8, !tbaa !35
  br label %15, !llvm.loop !140

71:                                               ; preds = %23
  %72 = load i8, ptr %6, align 1, !tbaa !62, !range !68, !noundef !69
  %73 = trunc i8 %72 to i1
  store i1 %73, ptr %3, align 1
  store i32 1, ptr %10, align 4
  br label %74

74:                                               ; preds = %71, %13
  call void @llvm.lifetime.end.p0(i64 8, ptr %9) #11
  call void @llvm.lifetime.end.p0(i64 8, ptr %8) #11
  call void @llvm.lifetime.end.p0(i64 8, ptr %7) #11
  call void @llvm.lifetime.end.p0(i64 1, ptr %6) #11
  %75 = load i1, ptr %3, align 1
  ret i1 %75
}