; Function Attrs: nounwind uwtable
define internal fastcc noundef zeroext i1 @checkus(ptr noundef %0, i64 noundef %1) unnamed_addr #0 {
  %3 = icmp eq ptr %0, null
  %4 = icmp eq i64 %1, 0
  %or.cond = or i1 %3, %4
  br i1 %or.cond, label %.loopexit, label %.lr.ph30

.lr.ph30:                                         ; preds = %2, %21
  %.01829 = phi i64 [ %22, %21 ], [ 0, %2 ]
  %5 = getelementptr inbounds nuw %struct.pmix_info, ptr %0, i64 %.01829
  %6 = tail call zeroext i1 @PMIx_Check_key(ptr noundef nonnull %5, ptr noundef nonnull @.str.9) #13
  br i1 %6, label %9, label %7

7:                                                ; preds = %.lr.ph30
  %8 = tail call zeroext i1 @PMIx_Check_key(ptr noundef nonnull %5, ptr noundef nonnull @.str.10) #13
  br i1 %8, label %9, label %21

9:                                                ; preds = %7, %.lr.ph30
  %10 = getelementptr inbounds nuw i8, ptr %5, i64 528
  %11 = load ptr, ptr %10, align 8, !tbaa !57
  %12 = tail call ptr @PMIx_Argv_split(ptr noundef %11, i32 noundef 44) #13
  %13 = load ptr, ptr %12, align 8, !tbaa !40
  %.not24 = icmp eq ptr %13, null
  br i1 %.not24, label %._crit_edge, label %.lr.ph

14:                                               ; preds = %.lr.ph
  %15 = add i64 %.025, 1
  %16 = getelementptr inbounds nuw ptr, ptr %12, i64 %15
  %17 = load ptr, ptr %16, align 8, !tbaa !40
  %.not = icmp eq ptr %17, null
  br i1 %.not, label %._crit_edge, label %.lr.ph, !llvm.loop !119

.lr.ph:                                           ; preds = %9, %14
  %18 = phi ptr [ %17, %14 ], [ %13, %9 ]
  %.025 = phi i64 [ %15, %14 ], [ 0, %9 ]
  %19 = tail call i32 @strcmp(ptr noundef nonnull dereferenceable(1) %18, ptr noundef nonnull dereferenceable(7) @.str) #17
  %20 = icmp eq i32 %19, 0
  br i1 %20, label %._crit_edge, label %14

._crit_edge:                                      ; preds = %14, %.lr.ph, %9
  %.1 = phi i1 [ false, %9 ], [ %20, %.lr.ph ], [ %20, %14 ]
  tail call void @PMIx_Argv_free(ptr noundef nonnull %12) #13
  br label %21

21:                                               ; preds = %7, %._crit_edge
  %.2 = phi i1 [ %.1, %._crit_edge ], [ false, %7 ]
  %22 = add nuw i64 %.01829, 1
  %23 = icmp uge i64 %22, %1
  %.not23 = or i1 %23, %.2
  br i1 %.not23, label %.loopexit, label %.lr.ph30, !llvm.loop !120

.loopexit:                                        ; preds = %21, %2
  %.019 = phi i1 [ false, %2 ], [ %.2, %21 ]
  ret i1 %.019
}